; Function Attrs: nounwind uwtable
define void @densmatr_mixKrausMap(ptr noundef readonly byval(%struct.Qureg) align 8 captures(none) %0, i32 noundef %1, ptr noundef readonly captures(none) %2, i32 noundef %3) local_unnamed_addr #11 {
  %5 = alloca %struct.ComplexMatrix4, align 8
  %invariant.gep = getelementptr inbounds nuw i8, ptr %5, i64 128
  br label %.preheader84.i

.preheader84.i:                                   ; preds = %.preheader84.i, %4
  %indvars.iv93.i = phi i64 [ 0, %4 ], [ %indvars.iv.next94.i, %.preheader84.i ]
  %6 = shl nuw nsw i64 %indvars.iv93.i, 5
  %gep = getelementptr i8, ptr %invariant.gep, i64 %6
  %scevgep = getelementptr nuw i8, ptr %5, i64 %6
  call void @llvm.memset.p0.i64(ptr noundef nonnull align 8 dereferenceable(32) %scevgep, i8 0, i64 32, i1 false), !tbaa !13
  call void @llvm.memset.p0.i64(ptr noundef nonnull align 8 dereferenceable(32) %gep, i8 0, i64 32, i1 false), !tbaa !13
  %indvars.iv.next94.i = add nuw nsw i64 %indvars.iv93.i, 1
  %exitcond96.not.i = icmp eq i64 %indvars.iv.next94.i, 4
  br i1 %exitcond96.not.i, label %.preheader83.i, label %.preheader84.i

.preheader83.i:                                   ; preds = %.preheader84.i
  %7 = getelementptr inbounds nuw i8, ptr %5, i64 128
  %8 = icmp sgt i32 %3, 0
  br i1 %8, label %.preheader82.lr.ph.i, label %populateKrausSuperOperator2.exit

.preheader82.lr.ph.i:                             ; preds = %.preheader83.i
  %wide.trip.count.i = zext nneg i32 %3 to i64
  br label %.preheader82.i

.preheader82.i:                                   ; preds = %13, %.preheader82.lr.ph.i
  %indvars.iv109.i = phi i64 [ 0, %.preheader82.lr.ph.i ], [ %indvars.iv.next110.i, %13 ]
  %9 = getelementptr inbounds nuw %struct.ComplexMatrix2, ptr %2, i64 %indvars.iv109.i
  %10 = getelementptr inbounds nuw i8, ptr %9, i64 32
  br label %.preheader81.i

.preheader81.i:                                   ; preds = %20, %.preheader82.i
  %11 = phi i1 [ true, %.preheader82.i ], [ false, %20 ]
  %indvars.iv106.i = phi i64 [ 0, %.preheader82.i ], [ 1, %20 ]
  %12 = shl nuw nsw i64 %indvars.iv106.i, 1
  br label %.preheader80.i

13:                                               ; preds = %20
  %indvars.iv.next110.i = add nuw nsw i64 %indvars.iv109.i, 1
  %exitcond112.not.i = icmp eq i64 %indvars.iv.next110.i, %wide.trip.count.i
  br i1 %exitcond112.not.i, label %populateKrausSuperOperator2.exit, label %.preheader82.i

.preheader80.i:                                   ; preds = %23, %.preheader81.i
  %14 = phi i1 [ true, %.preheader81.i ], [ false, %23 ]
  %indvars.iv103.i = phi i64 [ 0, %.preheader81.i ], [ 1, %23 ]
  %15 = getelementptr inbounds nuw [2 x [2 x double]], ptr %9, i64 0, i64 %indvars.iv106.i, i64 %indvars.iv103.i
  %16 = getelementptr inbounds nuw [2 x [2 x double]], ptr %10, i64 0, i64 %indvars.iv106.i, i64 %indvars.iv103.i
  %17 = shl nuw nsw i64 %indvars.iv103.i, 1
  %18 = load double, ptr %15, align 8, !tbaa !13
  %19 = load double, ptr %16, align 8, !tbaa !13
  br label %.preheader.i

20:                                               ; preds = %23
  br i1 %11, label %.preheader81.i, label %13

.preheader.i:                                     ; preds = %24, %.preheader80.i
  %21 = phi i1 [ true, %.preheader80.i ], [ false, %24 ]
  %indvars.iv100.i = phi i64 [ 0, %.preheader80.i ], [ 1, %24 ]
  %22 = or disjoint i64 %indvars.iv100.i, %12
  br label %25

23:                                               ; preds = %24
  br i1 %14, label %.preheader80.i, label %20

24:                                               ; preds = %25
  br i1 %21, label %.preheader.i, label %23

25:                                               ; preds = %25, %.preheader.i
  %26 = phi i1 [ true, %.preheader.i ], [ false, %25 ]
  %indvars.iv97.i = phi i64 [ 0, %.preheader.i ], [ 1, %25 ]
  %27 = getelementptr inbounds nuw [2 x [2 x double]], ptr %9, i64 0, i64 %indvars.iv100.i, i64 %indvars.iv97.i
  %28 = load double, ptr %27, align 8, !tbaa !13
  %29 = getelementptr inbounds nuw [2 x [2 x double]], ptr %10, i64 0, i64 %indvars.iv100.i, i64 %indvars.iv97.i
  %30 = load double, ptr %29, align 8, !tbaa !13
  %31 = fmul double %19, %30
  %32 = tail call double @llvm.fmuladd.f64(double %18, double %28, double %31)
  %33 = or disjoint i64 %indvars.iv97.i, %17
  %34 = getelementptr inbounds nuw [4 x [4 x double]], ptr %5, i64 0, i64 %22, i64 %33
  %35 = load double, ptr %34, align 8, !tbaa !13
  %36 = fadd double %35, %32
  store double %36, ptr %34, align 8, !tbaa !13
  %37 = fneg double %28
  %38 = fmul double %19, %37
  %39 = tail call double @llvm.fmuladd.f64(double %18, double %30, double %38)
  %40 = getelementptr inbounds nuw [4 x [4 x double]], ptr %7, i64 0, i64 %22, i64 %33
  %41 = load double, ptr %40, align 8, !tbaa !13
  %42 = fadd double %39, %41
  store double %42, ptr %40, align 8, !tbaa !13
  br i1 %26, label %25, label %24

populateKrausSuperOperator2.exit:                 ; preds = %13, %.preheader83.i
  %.sroa.3.0..sroa_idx = getelementptr inbounds nuw i8, ptr %0, i64 4
  %.sroa.3.0.copyload = load i32, ptr %.sroa.3.0..sroa_idx, align 4
  %43 = add nsw i32 %.sroa.3.0.copyload, %1
  tail call void @statevec_multiControlledTwoQubitUnitary(ptr noundef nonnull byval(%struct.Qureg) align 8 %0, i64 noundef 0, i32 noundef %1, i32 noundef %43, ptr noundef nonnull byval(%struct.ComplexMatrix4) align 8 %5) #22
  ret void
}